; ModuleID = '31/1810.c'
source_filename = "31/1810.c"
target datalayout = "e-m:e-p270:32:32-p271:32:32-p272:64:64-i64:64-f80:128-n8:16:32:64-S128"
target triple = "x86_64-pc-linux-gnu"

%struct.student = type { [100 x i8], %struct.student* }

@.str = private unnamed_addr constant [4 x i8] c"end\00", align 1
@.str.1 = private unnamed_addr constant [4 x i8] c"%s\0A\00", align 1

; Function Attrs: noinline nounwind uwtable
define dso_local void @main() #0 {
  %1 = alloca %struct.student*, align 8
  %2 = alloca %struct.student*, align 8
  %3 = alloca %struct.student*, align 8
  %4 = call noalias i8* @malloc(i64 100) #4
  %5 = bitcast i8* %4 to %struct.student*
  store %struct.student* %5, %struct.student** %3, align 8
  store %struct.student* %5, %struct.student** %2, align 8
  %6 = load %struct.student*, %struct.student** %2, align 8
  %7 = getelementptr inbounds %struct.student, %struct.student* %6, i32 0, i32 0
  %8 = getelementptr inbounds [100 x i8], [100 x i8]* %7, i64 0, i64 0
  %9 = call i32 (i8*, ...) bitcast (i32 (...)* @gets to i32 (i8*, ...)*)(i8* %8)
  %10 = load %struct.student*, %struct.student** %2, align 8
  %11 = getelementptr inbounds %struct.student, %struct.student* %10, i32 0, i32 1
  store %struct.student* null, %struct.student** %11, align 8
  br label %12

12:                                               ; preds = %18, %0
  %13 = load %struct.student*, %struct.student** %2, align 8
  %14 = getelementptr inbounds %struct.student, %struct.student* %13, i32 0, i32 0
  %15 = getelementptr inbounds [100 x i8], [100 x i8]* %14, i64 0, i64 0
  %16 = call i32 @strcmp(i8* %15, i8* getelementptr inbounds ([4 x i8], [4 x i8]* @.str, i64 0, i64 0)) #5
  %17 = icmp ne i32 %16, 0
  br i1 %17, label %18, label %30

18:                                               ; preds = %12
  %19 = load %struct.student*, %struct.student** %2, align 8
  store %struct.student* %19, %struct.student** %1, align 8
  %20 = load %struct.student*, %struct.student** %2, align 8
  store %struct.student* %20, %struct.student** %3, align 8
  %21 = call noalias i8* @malloc(i64 100) #4
  %22 = bitcast i8* %21 to %struct.student*
  store %struct.student* %22, %struct.student** %2, align 8
  %23 = load %struct.student*, %struct.student** %2, align 8
  %24 = getelementptr inbounds %struct.student, %struct.student* %23, i32 0, i32 0
  %25 = getelementptr inbounds [100 x i8], [100 x i8]* %24, i64 0, i64 0
  %26 = call i32 (i8*, ...) bitcast (i32 (...)* @gets to i32 (i8*, ...)*)(i8* %25)
  %27 = load %struct.student*, %struct.student** %3, align 8
  %28 = load %struct.student*, %struct.student** %2, align 8
  %29 = getelementptr inbounds %struct.student, %struct.student* %28, i32 0, i32 1
  store %struct.student* %27, %struct.student** %29, align 8
  br label %12

30:                                               ; preds = %12
  %31 = load %struct.student*, %struct.student** %1, align 8
  store %struct.student* %31, %struct.student** %2, align 8
  br label %32

32:                                               ; preds = %40, %30
  %33 = load %struct.student*, %struct.student** %2, align 8
  %34 = icmp ne %struct.student* %33, null
  br i1 %34, label %35, label %44

35:                                               ; preds = %32
  %36 = load %struct.student*, %struct.student** %2, align 8
  %37 = getelementptr inbounds %struct.student, %struct.student* %36, i32 0, i32 0
  %38 = getelementptr inbounds [100 x i8], [100 x i8]* %37, i64 0, i64 0
  %39 = call i32 (i8*, ...) @printf(i8* getelementptr inbounds ([4 x i8], [4 x i8]* @.str.1, i64 0, i64 0), i8* %38)
  br label %40

40:                                               ; preds = %35
  %41 = load %struct.student*, %struct.student** %2, align 8
  %42 = getelementptr inbounds %struct.student, %struct.student* %41, i32 0, i32 1
  %43 = load %struct.student*, %struct.student** %42, align 8
  store %struct.student* %43, %struct.student** %2, align 8
  br label %32

44:                                               ; preds = %32
  ret void
}

; Function Attrs: nounwind
declare dso_local noalias i8* @malloc(i64) #1

declare dso_local i32 @gets(...) #2

; Function Attrs: nounwind readonly
declare dso_local i32 @strcmp(i8*, i8*) #3

declare dso_local i32 @printf(i8*, ...) #2


!llvm.module.flags = !{!0}
!llvm.ident = !{!1}

!0 = !{i32 1, !"wchar_size", i32 4}
!1 = !{!"clang version 10.0.0-4ubuntu1 "}
